target datalayout = "e-m:e-p270:32:32-p271:32:32-p272:64:64-i64:64-i128:128-f80:128-n8:16:32:64-S128"
target triple = "x86_64-pc-linux-gnu"

%struct.strbuf = type { i64, i64, ptr }
%struct.config_source = type { ptr, %union.anon, i32, ptr, ptr, i32, i32, i32, i64, %struct.strbuf, %struct.strbuf, i8, ptr, ptr, ptr }
%union.anon = type { %struct.config_buf }
%struct.config_buf = type { ptr, i64, i64 }

; Function Attrs: nounwind uwtable
define dso_local i32 @git_config_from_mem(ptr noundef %0, i32 noundef %1, ptr noundef %2, ptr noundef %3, i64 noundef %4, ptr noundef %5, i32 noundef %6, ptr noundef %7) #0 {
  %9 = alloca ptr, align 8
  %10 = alloca i32, align 4
  %11 = alloca ptr, align 8
  %12 = alloca ptr, align 8
  %13 = alloca i64, align 8
  %14 = alloca ptr, align 8
  %15 = alloca i32, align 4
  %16 = alloca ptr, align 8
  %17 = alloca %struct.config_source, align 8
  store ptr %0, ptr %9, align 8, !tbaa !30
  store i32 %1, ptr %10, align 4, !tbaa !13
  store ptr %2, ptr %11, align 8, !tbaa !4
  store ptr %3, ptr %12, align 8, !tbaa !4
  store i64 %4, ptr %13, align 8, !tbaa !19
  store ptr %5, ptr %14, align 8, !tbaa !30
  store i32 %6, ptr %15, align 4, !tbaa !13
  store ptr %7, ptr %16, align 8, !tbaa !48
  call void @llvm.lifetime.start.p0(i64 160, ptr %17) #13
  call void @llvm.memset.p0.i64(ptr align 8 %17, i8 0, i64 160, i1 false)
  %18 = load ptr, ptr %12, align 8, !tbaa !4
  %19 = getelementptr inbounds nuw %struct.config_source, ptr %17, i32 0, i32 1
  %20 = getelementptr inbounds nuw %struct.config_buf, ptr %19, i32 0, i32 0
  store ptr %18, ptr %20, align 8, !tbaa !9
  %21 = load i64, ptr %13, align 8, !tbaa !19
  %22 = getelementptr inbounds nuw %struct.config_source, ptr %17, i32 0, i32 1
  %23 = getelementptr inbounds nuw %struct.config_buf, ptr %22, i32 0, i32 1
  store i64 %21, ptr %23, align 8, !tbaa !9
  %24 = getelementptr inbounds nuw %struct.config_source, ptr %17, i32 0, i32 1
  %25 = getelementptr inbounds nuw %struct.config_buf, ptr %24, i32 0, i32 2
  store i64 0, ptr %25, align 8, !tbaa !9
  %26 = load i32, ptr %10, align 4, !tbaa !13
  %27 = getelementptr inbounds nuw %struct.config_source, ptr %17, i32 0, i32 2
  store i32 %26, ptr %27, align 8, !tbaa !52
  %28 = load ptr, ptr %11, align 8, !tbaa !4
  %29 = getelementptr inbounds nuw %struct.config_source, ptr %17, i32 0, i32 3
  store ptr %28, ptr %29, align 8, !tbaa !55
  %30 = getelementptr inbounds nuw %struct.config_source, ptr %17, i32 0, i32 4
  store ptr null, ptr %30, align 8, !tbaa !56
  %31 = getelementptr inbounds nuw %struct.config_source, ptr %17, i32 0, i32 5
  store i32 2, ptr %31, align 8, !tbaa !57
  %32 = getelementptr inbounds nuw %struct.config_source, ptr %17, i32 0, i32 12
  store ptr @config_buf_fgetc, ptr %32, align 8, !tbaa !58
  %33 = getelementptr inbounds nuw %struct.config_source, ptr %17, i32 0, i32 13
  store ptr @config_buf_ungetc, ptr %33, align 8, !tbaa !59
  %34 = getelementptr inbounds nuw %struct.config_source, ptr %17, i32 0, i32 14
  store ptr @config_buf_ftell, ptr %34, align 8, !tbaa !60
  %35 = load ptr, ptr %9, align 8, !tbaa !30
  %36 = load ptr, ptr %14, align 8, !tbaa !30
  %37 = load i32, ptr %15, align 4, !tbaa !13
  %38 = load ptr, ptr %16, align 8, !tbaa !48
  %39 = call i32 @do_config_from(ptr noundef %17, ptr noundef %35, ptr noundef %36, i32 noundef %37, ptr noundef %38)
  call void @llvm.lifetime.end.p0(i64 160, ptr %17) #13
  ret i32 %39
}