; Function Attrs: nounwind uwtable
define dso_local range(i32 -1, 1) i32 @git_config_from_mem(ptr noundef readonly captures(none) %0, i32 noundef %1, ptr noundef %2, ptr noundef %3, i64 noundef %4, ptr noundef %5, i32 noundef %6, ptr noundef %7) local_unnamed_addr #0 {
  %9 = alloca %struct.config_source, align 8
  call void @llvm.lifetime.start.p0(i64 160, ptr nonnull %9) #30
  call void @llvm.memset.p0.i64(ptr noundef nonnull align 8 dereferenceable(160) %9, i8 0, i64 136, i1 false)
  %10 = getelementptr inbounds nuw i8, ptr %9, i64 8
  store ptr %3, ptr %10, align 8, !tbaa !4
  %11 = getelementptr inbounds nuw i8, ptr %9, i64 16
  store i64 %4, ptr %11, align 8, !tbaa !4
  %12 = getelementptr inbounds nuw i8, ptr %9, i64 32
  store i32 %1, ptr %12, align 8, !tbaa !36
  %13 = getelementptr inbounds nuw i8, ptr %9, i64 40
  store ptr %2, ptr %13, align 8, !tbaa !39
  %14 = getelementptr inbounds nuw i8, ptr %9, i64 56
  store i32 2, ptr %14, align 8, !tbaa !41
  %15 = getelementptr inbounds nuw i8, ptr %9, i64 136
  store ptr @config_buf_fgetc, ptr %15, align 8, !tbaa !42
  %16 = getelementptr inbounds nuw i8, ptr %9, i64 144
  store ptr @config_buf_ungetc, ptr %16, align 8, !tbaa !43
  %17 = getelementptr inbounds nuw i8, ptr %9, i64 152
  store ptr @config_buf_ftell, ptr %17, align 8, !tbaa !44
  %18 = call fastcc i32 @do_config_from(ptr noundef %9, ptr noundef %0, ptr noundef %5, i32 noundef %6, ptr noundef %7)
  call void @llvm.lifetime.end.p0(i64 160, ptr nonnull %9) #30
  ret i32 %18
}